; Function Attrs: mustprogress nounwind uwtable
define dso_local noundef range(i32 -32768, 32768) i32 @_ZNK4llvm12MCSchedModel19computeInstrLatencyERKNS_15MCSubtargetInfoERKNS_11MCInstrInfoERKNS_6MCInstE(ptr nocapture noundef nonnull readonly align 8 dereferenceable(72) %0, ptr noundef nonnull align 8 dereferenceable(288) %1, ptr noundef nonnull align 8 dereferenceable(44) %2, ptr noundef nonnull align 8 dereferenceable(128) %3) local_unnamed_addr #2 align 2 {
  %5 = load i32, ptr %3, align 8
  %6 = load ptr, ptr %2, align 8
  %7 = zext i32 %5 to i64
  %8 = sub nsw i64 0, %7
  %9 = getelementptr inbounds %"class.llvm::MCInstrDesc", ptr %6, i64 %8, i32 4
  %10 = load i16, ptr %9, align 2
  %11 = getelementptr inbounds nuw i8, ptr %0, i64 40
  %12 = load ptr, ptr %11, align 8
  %13 = zext i16 %10 to i64
  %14 = getelementptr inbounds %"struct.llvm::MCSchedClassDesc", ptr %12, i64 %13
  %15 = load i16, ptr %14, align 2
  %16 = and i16 %15, 8191
  %.not = icmp eq i16 %16, 8191
  br i1 %.not, label %_ZN4llvm12MCSchedModel19computeInstrLatencyERKNS_15MCSubtargetInfoERKNS_16MCSchedClassDescE.exit, label %17

17:                                               ; preds = %4
  %18 = zext i16 %10 to i32
  %19 = getelementptr inbounds nuw i8, ptr %0, i64 28
  %20 = load i32, ptr %19, align 4
  %21 = icmp eq i16 %16, 8190
  br i1 %21, label %.lr.ph, label %._crit_edge

.lr.ph:                                           ; preds = %17, %.lr.ph
  %.01617 = phi i32 [ %25, %.lr.ph ], [ %18, %17 ]
  %22 = load ptr, ptr %1, align 8
  %23 = getelementptr inbounds i8, ptr %22, i64 16
  %24 = load ptr, ptr %23, align 8
  %25 = tail call noundef i32 %24(ptr noundef nonnull align 8 dereferenceable(288) %1, i32 noundef %.01617, ptr noundef nonnull %3, ptr noundef nonnull %2, i32 noundef %20) #7
  %26 = load ptr, ptr %11, align 8
  %27 = zext i32 %25 to i64
  %28 = getelementptr inbounds %"struct.llvm::MCSchedClassDesc", ptr %26, i64 %27
  %29 = load i16, ptr %28, align 2
  %30 = and i16 %29, 8191
  %31 = icmp eq i16 %30, 8190
  br i1 %31, label %.lr.ph, label %._crit_edge, !llvm.loop !6

._crit_edge:                                      ; preds = %.lr.ph, %17
  %.016.lcssa = phi i32 [ %18, %17 ], [ %25, %.lr.ph ]
  %.015.lcssa = phi ptr [ %14, %17 ], [ %28, %.lr.ph ]
  %32 = icmp ne i32 %.016.lcssa, 0
  tail call void @llvm.assume(i1 %32)
  %33 = getelementptr inbounds nuw i8, ptr %.015.lcssa, i64 8
  %34 = load i16, ptr %33, align 2
  %.not17.i = icmp eq i16 %34, 0
  br i1 %.not17.i, label %_ZN4llvm12MCSchedModel19computeInstrLatencyERKNS_15MCSubtargetInfoERKNS_16MCSchedClassDescE.exit, label %.lr.ph.i

.lr.ph.i:                                         ; preds = %._crit_edge
  %35 = getelementptr inbounds nuw i8, ptr %1, i64 168
  %36 = load ptr, ptr %35, align 8
  %37 = getelementptr inbounds nuw i8, ptr %.015.lcssa, i64 6
  %38 = load i16, ptr %37, align 2
  %39 = zext i16 %38 to i64
  %40 = zext i16 %34 to i64
  %invariant.gep.i = getelementptr inbounds %"struct.llvm::MCWriteLatencyEntry", ptr %36, i64 %39
  br label %41

41:                                               ; preds = %45, %.lr.ph.i
  %indvars.iv.i = phi i64 [ 0, %.lr.ph.i ], [ %indvars.iv.next.i, %45 ]
  %.01618.i = phi i32 [ 0, %.lr.ph.i ], [ %.sroa.speculated.i, %45 ]
  %gep.i = getelementptr inbounds %"struct.llvm::MCWriteLatencyEntry", ptr %invariant.gep.i, i64 %indvars.iv.i
  %42 = load i16, ptr %gep.i, align 2
  %43 = sext i16 %42 to i32
  %44 = icmp slt i16 %42, 0
  br i1 %44, label %_ZN4llvm12MCSchedModel19computeInstrLatencyERKNS_15MCSubtargetInfoERKNS_16MCSchedClassDescE.exit, label %45

45:                                               ; preds = %41
  %.sroa.speculated.i = tail call i32 @llvm.smax.i32(i32 %.01618.i, i32 %43)
  %indvars.iv.next.i = add nuw nsw i64 %indvars.iv.i, 1
  %.not.i = icmp eq i64 %indvars.iv.next.i, %40
  br i1 %.not.i, label %_ZN4llvm12MCSchedModel19computeInstrLatencyERKNS_15MCSubtargetInfoERKNS_16MCSchedClassDescE.exit, label %41, !llvm.loop !4

_ZN4llvm12MCSchedModel19computeInstrLatencyERKNS_15MCSubtargetInfoERKNS_16MCSchedClassDescE.exit: ; preds = %45, %41, %._crit_edge, %4
  %.0 = phi i32 [ 0, %4 ], [ 0, %._crit_edge ], [ %43, %41 ], [ %.sroa.speculated.i, %45 ]
  ret i32 %.0
}